target datalayout = "e-m:e-p270:32:32-p271:32:32-p272:64:64-i64:64-i128:128-f80:128-n8:16:32:64-S128"
target triple = "x86_64-pc-linux-gnu"

; Function Attrs: nounwind uwtable
define internal i32 @vvc_sad(ptr noundef %0, ptr noundef %1, i32 noundef %2, i32 noundef %3, i32 noundef %4, i32 noundef %5) #0 {
  %7 = alloca ptr, align 8
  %8 = alloca ptr, align 8
  %9 = alloca i32, align 4
  %10 = alloca i32, align 4
  %11 = alloca i32, align 4
  %12 = alloca i32, align 4
  %13 = alloca i32, align 4
  %14 = alloca i32, align 4
  %15 = alloca i32, align 4
  %16 = alloca i32, align 4
  store ptr %0, ptr %7, align 8, !tbaa !142
  store ptr %1, ptr %8, align 8, !tbaa !142
  store i32 %2, ptr %9, align 4, !tbaa !9
  store i32 %3, ptr %10, align 4, !tbaa !9
  store i32 %4, ptr %11, align 4, !tbaa !9
  store i32 %5, ptr %12, align 4, !tbaa !9
  call void @llvm.lifetime.start.p0(i64 4, ptr %13) #8
  store i32 0, ptr %13, align 4, !tbaa !9
  %17 = load i32, ptr %9, align 4, !tbaa !9
  %18 = sub nsw i32 %17, 2
  store i32 %18, ptr %9, align 4, !tbaa !9
  %19 = load i32, ptr %10, align 4, !tbaa !9
  %20 = sub nsw i32 %19, 2
  store i32 %20, ptr %10, align 4, !tbaa !9
  %21 = load i32, ptr %10, align 4, !tbaa !9
  %22 = add nsw i32 2, %21
  %23 = mul nsw i32 %22, 128
  %24 = add nsw i32 %23, 2
  %25 = load i32, ptr %9, align 4, !tbaa !9
  %26 = add nsw i32 %24, %25
  %27 = load ptr, ptr %7, align 8, !tbaa !142
  %28 = sext i32 %26 to i64
  %29 = getelementptr inbounds i16, ptr %27, i64 %28
  store ptr %29, ptr %7, align 8, !tbaa !142
  %30 = load i32, ptr %10, align 4, !tbaa !9
  %31 = sub nsw i32 2, %30
  %32 = mul nsw i32 %31, 128
  %33 = add nsw i32 %32, 2
  %34 = load i32, ptr %9, align 4, !tbaa !9
  %35 = sub nsw i32 %33, %34
  %36 = load ptr, ptr %8, align 8, !tbaa !142
  %37 = sext i32 %35 to i64
  %38 = getelementptr inbounds i16, ptr %36, i64 %37
  store ptr %38, ptr %8, align 8, !tbaa !142
  call void @llvm.lifetime.start.p0(i64 4, ptr %14) #8
  store i32 0, ptr %14, align 4, !tbaa !9
  br label %39

39:                                               ; preds = %106, %6
  %40 = load i32, ptr %14, align 4, !tbaa !9
  %41 = load i32, ptr %12, align 4, !tbaa !9
  %42 = icmp slt i32 %40, %41
  br i1 %42, label %44, label %43

43:                                               ; preds = %39
  store i32 2, ptr %15, align 4
  call void @llvm.lifetime.end.p0(i64 4, ptr %14) #8
  br label %109

44:                                               ; preds = %39
  call void @llvm.lifetime.start.p0(i64 4, ptr %16) #8
  store i32 0, ptr %16, align 4, !tbaa !9
  br label %45

45:                                               ; preds = %98, %44
  %46 = load i32, ptr %16, align 4, !tbaa !9
  %47 = load i32, ptr %11, align 4, !tbaa !9
  %48 = icmp slt i32 %46, %47
  br i1 %48, label %50, label %49

49:                                               ; preds = %45
  store i32 5, ptr %15, align 4
  call void @llvm.lifetime.end.p0(i64 4, ptr %16) #8
  br label %101

50:                                               ; preds = %45
  %51 = load ptr, ptr %7, align 8, !tbaa !142
  %52 = load i32, ptr %16, align 4, !tbaa !9
  %53 = sext i32 %52 to i64
  %54 = getelementptr inbounds i16, ptr %51, i64 %53
  %55 = load i16, ptr %54, align 2, !tbaa !148
  %56 = sext i16 %55 to i32
  %57 = load ptr, ptr %8, align 8, !tbaa !142
  %58 = load i32, ptr %16, align 4, !tbaa !9
  %59 = sext i32 %58 to i64
  %60 = getelementptr inbounds i16, ptr %57, i64 %59
  %61 = load i16, ptr %60, align 2, !tbaa !148
  %62 = sext i16 %61 to i32
  %63 = sub nsw i32 %56, %62
  %64 = icmp sge i32 %63, 0
  br i1 %64, label %65, label %79

65:                                               ; preds = %50
  %66 = load ptr, ptr %7, align 8, !tbaa !142
  %67 = load i32, ptr %16, align 4, !tbaa !9
  %68 = sext i32 %67 to i64
  %69 = getelementptr inbounds i16, ptr %66, i64 %68
  %70 = load i16, ptr %69, align 2, !tbaa !148
  %71 = sext i16 %70 to i32
  %72 = load ptr, ptr %8, align 8, !tbaa !142
  %73 = load i32, ptr %16, align 4, !tbaa !9
  %74 = sext i32 %73 to i64
  %75 = getelementptr inbounds i16, ptr %72, i64 %74
  %76 = load i16, ptr %75, align 2, !tbaa !148
  %77 = sext i16 %76 to i32
  %78 = sub nsw i32 %71, %77
  br label %94

79:                                               ; preds = %50
  %80 = load ptr, ptr %7, align 8, !tbaa !142
  %81 = load i32, ptr %16, align 4, !tbaa !9
  %82 = sext i32 %81 to i64
  %83 = getelementptr inbounds i16, ptr %80, i64 %82
  %84 = load i16, ptr %83, align 2, !tbaa !148
  %85 = sext i16 %84 to i32
  %86 = load ptr, ptr %8, align 8, !tbaa !142
  %87 = load i32, ptr %16, align 4, !tbaa !9
  %88 = sext i32 %87 to i64
  %89 = getelementptr inbounds i16, ptr %86, i64 %88
  %90 = load i16, ptr %89, align 2, !tbaa !148
  %91 = sext i16 %90 to i32
  %92 = sub nsw i32 %85, %91
  %93 = sub nsw i32 0, %92
  br label %94

94:                                               ; preds = %79, %65
  %95 = phi i32 [ %78, %65 ], [ %93, %79 ]
  %96 = load i32, ptr %13, align 4, !tbaa !9
  %97 = add nsw i32 %96, %95
  store i32 %97, ptr %13, align 4, !tbaa !9
  br label %98

98:                                               ; preds = %94
  %99 = load i32, ptr %16, align 4, !tbaa !9
  %100 = add nsw i32 %99, 1
  store i32 %100, ptr %16, align 4, !tbaa !9
  br label %45, !llvm.loop !232

101:                                              ; preds = %49
  %102 = load ptr, ptr %7, align 8, !tbaa !142
  %103 = getelementptr inbounds i16, ptr %102, i64 256
  store ptr %103, ptr %7, align 8, !tbaa !142
  %104 = load ptr, ptr %8, align 8, !tbaa !142
  %105 = getelementptr inbounds i16, ptr %104, i64 256
  store ptr %105, ptr %8, align 8, !tbaa !142
  br label %106

106:                                              ; preds = %101
  %107 = load i32, ptr %14, align 4, !tbaa !9
  %108 = add nsw i32 %107, 2
  store i32 %108, ptr %14, align 4, !tbaa !9
  br label %39, !llvm.loop !233

109:                                              ; preds = %43
  %110 = load i32, ptr %13, align 4, !tbaa !9
  store i32 1, ptr %15, align 4
  call void @llvm.lifetime.end.p0(i64 4, ptr %13) #8
  ret i32 %110
}