; Function Attrs: nofree norecurse nosync nounwind memory(argmem: read) uwtable
define internal i32 @vvc_sad(ptr noundef readonly captures(none) %0, ptr noundef readonly captures(none) %1, i32 noundef %2, i32 noundef %3, i32 noundef %4, i32 noundef %5) #3 {
  %7 = icmp sgt i32 %5, 0
  %8 = icmp sgt i32 %4, 0
  %or.cond = and i1 %7, %8
  br i1 %or.cond, label %.preheader.us.preheader, label %._crit_edge43

.preheader.us.preheader:                          ; preds = %6
  %9 = shl i32 %3, 7
  %10 = add i32 %2, %9
  %11 = sext i32 %10 to i64
  %12 = getelementptr inbounds i16, ptr %0, i64 %11
  %13 = sub i32 516, %10
  %14 = sext i32 %13 to i64
  %15 = getelementptr inbounds i16, ptr %1, i64 %14
  %wide.trip.count = zext nneg i32 %4 to i64
  br label %.preheader.us

.preheader.us:                                    ; preds = %.preheader.us.preheader, %._crit_edge.us
  %.02942.us = phi i32 [ %28, %._crit_edge.us ], [ 0, %.preheader.us.preheader ]
  %.03041.us = phi i32 [ %25, %._crit_edge.us ], [ 0, %.preheader.us.preheader ]
  %.03140.us = phi ptr [ %26, %._crit_edge.us ], [ %12, %.preheader.us.preheader ]
  %.03239.us = phi ptr [ %27, %._crit_edge.us ], [ %15, %.preheader.us.preheader ]
  br label %16

16:                                               ; preds = %.preheader.us, %16
  %indvars.iv = phi i64 [ 0, %.preheader.us ], [ %indvars.iv.next, %16 ]
  %.137.us = phi i32 [ %.03041.us, %.preheader.us ], [ %25, %16 ]
  %17 = getelementptr inbounds nuw i16, ptr %.03140.us, i64 %indvars.iv
  %18 = load i16, ptr %17, align 2, !tbaa !124
  %19 = sext i16 %18 to i32
  %20 = getelementptr inbounds nuw i16, ptr %.03239.us, i64 %indvars.iv
  %21 = load i16, ptr %20, align 2, !tbaa !124
  %22 = sext i16 %21 to i32
  %23 = sub nsw i32 %19, %22
  %24 = tail call i32 @llvm.abs.i32(i32 %23, i1 true)
  %25 = add nsw i32 %24, %.137.us
  %indvars.iv.next = add nuw nsw i64 %indvars.iv, 1
  %exitcond.not = icmp eq i64 %indvars.iv.next, %wide.trip.count
  br i1 %exitcond.not, label %._crit_edge.us, label %16, !llvm.loop !222

._crit_edge.us:                                   ; preds = %16
  %26 = getelementptr inbounds nuw i8, ptr %.03140.us, i64 512
  %27 = getelementptr inbounds nuw i8, ptr %.03239.us, i64 512
  %28 = add nuw nsw i32 %.02942.us, 2
  %29 = icmp slt i32 %28, %5
  br i1 %29, label %.preheader.us, label %._crit_edge43, !llvm.loop !223

._crit_edge43:                                    ; preds = %._crit_edge.us, %6
  %.030.lcssa = phi i32 [ 0, %6 ], [ %25, %._crit_edge.us ]
  ret i32 %.030.lcssa
}